target datalayout = "e-m:e-p270:32:32-p271:32:32-p272:64:64-i64:64-i128:128-f80:128-n8:16:32:64-S128"
target triple = "x86_64-pc-linux-gnu"

%"class.arrow::internal::BitBlockCounter" = type { ptr, i64, i64 }
%"class.arrow::internal::OptionalBitBlockCounter" = type { i8, i64, i64, %"class.arrow::internal::BitBlockCounter" }

@_ZN5arrow4util8internalL14kNonNullFillerE = internal constant i8 0, align 1

; Function Attrs: mustprogress uwtable
define linkonce_odr void @_ZN5arrow8internal15BitBlockCounterC2EPKhll(ptr noundef nonnull align 8 dereferenceable(24) %0, ptr noundef %1, i64 noundef %2, i64 noundef %3) unnamed_addr #5 comdat align 2 {
  %5 = alloca ptr, align 8
  %6 = alloca ptr, align 8
  %7 = alloca i64, align 8
  %8 = alloca i64, align 8
  store ptr %0, ptr %5, align 8, !tbaa !3
  store ptr %1, ptr %6, align 8, !tbaa !24
  store i64 %2, ptr %7, align 8, !tbaa !8
  store i64 %3, ptr %8, align 8, !tbaa !8
  %9 = load ptr, ptr %5, align 8
  %10 = getelementptr inbounds nuw %"class.arrow::internal::BitBlockCounter", ptr %9, i32 0, i32 0
  %11 = load ptr, ptr %6, align 8, !tbaa !24
  %12 = call noundef ptr @_ZN5arrow4util11MakeNonNullIKhEEPT_S4_(ptr noundef %11)
  %13 = load i64, ptr %7, align 8, !tbaa !8
  %14 = sdiv i64 %13, 8
  %15 = getelementptr inbounds i8, ptr %12, i64 %14
  store ptr %15, ptr %10, align 8, !tbaa !12
  %16 = getelementptr inbounds nuw %"class.arrow::internal::BitBlockCounter", ptr %9, i32 0, i32 1
  %17 = load i64, ptr %8, align 8, !tbaa !8
  store i64 %17, ptr %16, align 8, !tbaa !16
  %18 = getelementptr inbounds nuw %"class.arrow::internal::BitBlockCounter", ptr %9, i32 0, i32 2
  %19 = load i64, ptr %7, align 8, !tbaa !8
  %20 = srem i64 %19, 8
  store i64 %20, ptr %18, align 8, !tbaa !15
  ret void
}

; Function Attrs: inlinehint mustprogress nounwind uwtable
define linkonce_odr noundef ptr @_ZN5arrow4util11MakeNonNullIKhEEPT_S4_(ptr noundef %0) #2 comdat {
  %2 = alloca ptr, align 8
  %3 = alloca ptr, align 8
  store ptr %0, ptr %3, align 8, !tbaa !24
  %4 = load ptr, ptr %3, align 8, !tbaa !24
  %5 = icmp ne ptr %4, null
  %6 = xor i1 %5, true
  %7 = xor i1 %6, true
  %8 = zext i1 %7 to i64
  %9 = call i64 @llvm.expect.i64(i64 %8, i64 1)
  %10 = icmp ne i64 %9, 0
  br i1 %10, label %11, label %13

11:                                               ; preds = %1
  %12 = load ptr, ptr %3, align 8, !tbaa !24
  store ptr %12, ptr %2, align 8
  br label %14

13:                                               ; preds = %1
  store ptr @_ZN5arrow4util8internalL14kNonNullFillerE, ptr %2, align 8
  br label %14

14:                                               ; preds = %13, %11
  %15 = load ptr, ptr %2, align 8
  ret ptr %15
}

; Function Attrs: mustprogress uwtable
define void @_ZN5arrow8internal23OptionalBitBlockCounterC2EPKhll(ptr noundef nonnull align 8 dereferenceable(48) %0, ptr noundef %1, i64 noundef %2, i64 noundef %3) unnamed_addr #5 align 2 {
  %5 = alloca ptr, align 8
  %6 = alloca ptr, align 8
  %7 = alloca i64, align 8
  %8 = alloca i64, align 8
  store ptr %0, ptr %5, align 8, !tbaa !22
  store ptr %1, ptr %6, align 8, !tbaa !24
  store i64 %2, ptr %7, align 8, !tbaa !8
  store i64 %3, ptr %8, align 8, !tbaa !8
  %9 = load ptr, ptr %5, align 8
  %10 = getelementptr inbounds nuw %"class.arrow::internal::OptionalBitBlockCounter", ptr %9, i32 0, i32 0
  %11 = load ptr, ptr %6, align 8, !tbaa !24
  %12 = icmp ne ptr %11, null
  %13 = zext i1 %12 to i8
  store i8 %13, ptr %10, align 8, !tbaa !25
  %14 = getelementptr inbounds nuw %"class.arrow::internal::OptionalBitBlockCounter", ptr %9, i32 0, i32 1
  store i64 0, ptr %14, align 8, !tbaa !28
  %15 = getelementptr inbounds nuw %"class.arrow::internal::OptionalBitBlockCounter", ptr %9, i32 0, i32 2
  %16 = load i64, ptr %8, align 8, !tbaa !8
  store i64 %16, ptr %15, align 8, !tbaa !29
  %17 = getelementptr inbounds nuw %"class.arrow::internal::OptionalBitBlockCounter", ptr %9, i32 0, i32 3
  %18 = load ptr, ptr %6, align 8, !tbaa !24
  %19 = call noundef ptr @_ZN5arrow4util11MakeNonNullIKhEEPT_S4_(ptr noundef %18)
  %20 = load i64, ptr %7, align 8, !tbaa !8
  %21 = load i64, ptr %8, align 8, !tbaa !8
  call void @_ZN5arrow8internal15BitBlockCounterC2EPKhll(ptr noundef nonnull align 8 dereferenceable(24) %17, ptr noundef %19, i64 noundef %20, i64 noundef %21)
  ret void
}