; Function Attrs: mustprogress nofree norecurse nosync nounwind willreturn memory(argmem: write) uwtable
define void @_ZN5arrow8internal23OptionalBitBlockCounterC2EPKhll(ptr noundef nonnull writeonly align 8 captures(none) dereferenceable(48) initializes((0, 1), (8, 48)) %0, ptr noundef %1, i64 noundef %2, i64 noundef %3) unnamed_addr #4 align 2 {
  %5 = icmp ne ptr %1, null
  %6 = zext i1 %5 to i8
  store i8 %6, ptr %0, align 8, !tbaa !13
  %7 = getelementptr inbounds nuw i8, ptr %0, i64 8
  store i64 0, ptr %7, align 8, !tbaa !16
  %8 = getelementptr inbounds nuw i8, ptr %0, i64 16
  store i64 %3, ptr %8, align 8, !tbaa !17
  %9 = getelementptr inbounds nuw i8, ptr %0, i64 24
  %.not.i = icmp eq ptr %1, null
  %_ZN5arrow4util8internalL14kNonNullFillerE..i = select i1 %.not.i, ptr @_ZN5arrow4util8internalL14kNonNullFillerE, ptr %1, !prof !18
  %10 = sdiv i64 %2, 8
  %11 = getelementptr inbounds i8, ptr %_ZN5arrow4util8internalL14kNonNullFillerE..i, i64 %10
  store ptr %11, ptr %9, align 8, !tbaa !7
  %12 = getelementptr inbounds nuw i8, ptr %0, i64 32
  store i64 %3, ptr %12, align 8, !tbaa !12
  %13 = getelementptr inbounds nuw i8, ptr %0, i64 40
  %14 = srem i64 %2, 8
  store i64 %14, ptr %13, align 8, !tbaa !11
  ret void
}